; Function Attrs: mustprogress nounwind uwtable
define dso_local void @_ZN4node5http210Http2ScopeC2EPNS0_12Http2SessionE(ptr nocapture noundef nonnull align 8 dereferenceable(8) %this, ptr noundef %session) unnamed_addr #4 align 2 {
entry:
  store ptr null, ptr %this, align 8
  %cmp.i = icmp eq ptr %session, null
  br i1 %cmp.i, label %return, label %_ZNK4node17BaseObjectPtrImplINS_5http212Http2SessionELb0EE12pointer_dataEv.exit.i

_ZNK4node17BaseObjectPtrImplINS_5http212Http2SessionELb0EE12pointer_dataEv.exit.i: ; preds = %entry
  store ptr %session, ptr %this, align 8
  %call3.i.i = tail call noundef ptr @_ZN4node10BaseObject12pointer_dataEv(ptr noundef nonnull align 8 dereferenceable(32) %session) #29
  %cmp2.not.i = icmp eq ptr %call3.i.i, null
  br i1 %cmp2.not.i, label %do.body6.i, label %_ZN4node17BaseObjectPtrImplINS_5http212Http2SessionELb0EEC2EPS2_.exit

do.body6.i:                                       ; preds = %_ZNK4node17BaseObjectPtrImplINS_5http212Http2SessionELb0EE12pointer_dataEv.exit.i
  tail call void @_ZN4node6AssertERKNS_13AssertionInfoE(ptr noundef nonnull align 8 dereferenceable(24) @_ZZN4node17BaseObjectPtrImplINS_5http212Http2SessionELb0EEC1EPS2_E4args_0) #29
  tail call void @abort() #30
  unreachable

_ZN4node17BaseObjectPtrImplINS_5http212Http2SessionELb0EEC2EPS2_.exit: ; preds = %_ZNK4node17BaseObjectPtrImplINS_5http212Http2SessionELb0EE12pointer_dataEv.exit.i
  %0 = load ptr, ptr %this, align 8
  tail call void @_ZN4node10BaseObject17increase_refcountEv(ptr noundef nonnull align 8 dereferenceable(32) %0) #29
  %.pr = load ptr, ptr %this, align 8
  %cmp.i1.not = icmp eq ptr %.pr, null
  br i1 %cmp.i1.not, label %return, label %if.end

if.end:                                           ; preds = %_ZN4node17BaseObjectPtrImplINS_5http212Http2SessionELb0EEC2EPS2_.exit
  %flags_.i = getelementptr inbounds i8, ptr %.pr, i64 304
  %1 = load i32, ptr %flags_.i, align 8
  %2 = and i32 %1, 3
  %or.cond.not = icmp eq i32 %2, 0
  br i1 %or.cond.not, label %if.end11, label %_ZN4node17BaseObjectPtrImplINS_5http212Http2SessionELb0EE5resetEPS2_.exit

_ZN4node17BaseObjectPtrImplINS_5http212Http2SessionELb0EE5resetEPS2_.exit: ; preds = %if.end
  tail call void @_ZN4node10BaseObject17decrease_refcountEv(ptr noundef nonnull align 8 dereferenceable(32) %.pr) #29
  store i64 0, ptr %this, align 8
  br label %return

if.end11:                                         ; preds = %if.end
  %and.sink.i = or disjoint i32 %1, 1
  store i32 %and.sink.i, ptr %flags_.i, align 8
  br label %return

return:                                           ; preds = %entry, %_ZN4node17BaseObjectPtrImplINS_5http212Http2SessionELb0EEC2EPS2_.exit, %if.end11, %_ZN4node17BaseObjectPtrImplINS_5http212Http2SessionELb0EE5resetEPS2_.exit
  ret void
}